target datalayout = "e-m:e-p270:32:32-p271:32:32-p272:64:64-i64:64-i128:128-f80:128-n8:16:32:64-S128"
target triple = "x86_64-pc-linux-gnu"

%struct.redisServer = type { i32, i64, ptr, ptr, ptr, i32, i32, i32, i32, i32, ptr, ptr, ptr, ptr, ptr, i32, i32, i32, i32, i64, i32, i32, i32, i32, ptr, i32, i32, [41 x i8], i32, i64, i32, i32, i32, ptr, ptr, i32, i32, i64, ptr, ptr, ptr, ptr, [2 x i32], i32, i32, i32, i32, i32, i32, [16 x ptr], i32, ptr, ptr, i32, [8 x %struct.connListener], i32, %struct.connListener, ptr, ptr, ptr, ptr, ptr, ptr, ptr, ptr, ptr, ptr, i32, ptr, i32, ptr, [3 x %struct.pause_event], [256 x i8], ptr, i64, i32, i32, [128 x i32], i32, i32, i64, i32, i32, i32, i32, i32, i64, i64, i64, i64, i64, i64, i64, i64, i64, i64, double, i64, i64, i64, i64, i64, i64, i64, i64, i64, i64, i64, i64, i64, i64, i64, i64, i64, i64, i64, i64, i64, double, i64, i64, i64, i64, i64, ptr, i64, i64, i64, %struct.malloc_stats, i64, i64, i64, i64, i64, i64, i64, i64, i64, i64, i64, i64, double, [4 x i64], i64, i64, i64, i64, [128 x i64], [128 x i64], i64, i64, [7 x %struct.anon], i64, i64, i64, i64, i64, i64, [4 x %struct.durationStats], i32, i32, i32, i32, i32, i32, i32, i32, i32, i32, i32, i32, i64, i32, i32, i32, i32, i64, i64, i32, i32, i32, i32, i32, ptr, [3 x %struct.clientBufferLimitsConfig], i32, i32, i32, ptr, i32, i32, i32, i32, i32, i32, ptr, ptr, i32, i32, i64, i64, i64, i64, i64, i32, i32, ptr, i32, i32, i64, i64, i64, i64, i64, i32, i32, i64, i32, i32, i32, i32, i32, i32, i32, i32, ptr, i32, i64, i64, i64, i64, i32, ptr, i32, ptr, i32, i32, i32, i64, i64, i64, i64, i32, i32, i32, i32, i32, i32, ptr, i32, i32, ptr, i32, i32, i32, [2 x i32], i32, %struct.redisOpArray, i32, ptr, i32, ptr, i32, i32, i32, i32, i32, i32, i32, [41 x i8], [41 x i8], i64, i64, i64, i64, i32, i32, ptr, i64, i64, %struct.replDataBuf, i64, i64, i32, i32, i32, i32, i32, i32, i32, i32, i32, i64, ptr, i64, ptr, ptr, ptr, i32, i32, ptr, ptr, i32, i32, i32, i64, i64, i64, i64, ptr, ptr, i32, ptr, i64, i32, i32, i32, i64, i32, i32, i32, i32, ptr, i32, i32, [41 x i8], i64, i32, ptr, i32, i32, i64, i64, i32, i32, i32, i32, i32, i64, [3 x i32], i32, i32, i32, [10 x i32], ptr, ptr, i32, i64, ptr, ptr, i32, i32, i32, i32, i64, i64, i64, i64, i64, i64, i64, i64, i64, i64, i32, i32, i64, i64, i32, i64, i64, i64, i64, i64, ptr, ptr, i32, ptr, i32, i32, i32, i32, i64, i64, ptr, ptr, i32, i32, i32, i32, i32, ptr, ptr, ptr, i32, i32, i32, i32, i32, i32, i32, i64, i32, i32, i64, i32, i32, i32, i32, i32, i32, i32, i64, ptr, ptr, i64, ptr, i32, %struct.aclInfo, i32, i64, i32, i32, i32, %struct.redisTLSContextConfig, ptr, ptr, ptr, ptr, ptr, i64, i32, ptr, i32, i32, i32, i64, i32, ptr }
%struct.connListener = type { [16 x i32], i32, ptr, i32, i32, ptr, ptr }
%struct.pause_event = type { i32, i64 }
%struct.malloc_stats = type { i64, i64, i64, i64, i64, i64, i64, i64, i64, i64, i64 }
%struct.anon = type { i64, i64, [16 x i64], i32 }
%struct.durationStats = type { i64, i64, i64 }
%struct.clientBufferLimitsConfig = type { i64, i64, i64 }
%struct.redisOpArray = type { ptr, i32, i32 }
%struct.replDataBuf = type { ptr, i64, i64, i64, i64 }
%struct.aclInfo = type { i64, i64, i64, i64 }
%struct.redisTLSContextConfig = type { ptr, ptr, ptr, ptr, ptr, ptr, ptr, ptr, ptr, ptr, ptr, ptr, i32, i32, i32, i32 }
%struct._clusterNode = type { i64, [40 x i8], [40 x i8], i32, i64, [2048 x i8], ptr, i32, i32, i32, ptr, ptr, i64, i64, i64, i64, i64, i64, i64, i64, i64, [46 x i8], ptr, ptr, i32, i32, i32, ptr, ptr, ptr }
%struct.clusterState = type { ptr, i64, i32, i32, ptr, ptr, ptr, [16384 x ptr], [16384 x ptr], [16384 x ptr], [40 x i8], i64, i32, i32, i32, i64, i32, i64, ptr, i64, i32, i64, i32, [11 x i64], [11 x i64], i64, i64, [2048 x i8] }

@myself = dso_local global ptr null, align 8
@server = external global %struct.redisServer, align 8

; Function Attrs: nounwind uwtable
define dso_local void @clusterDoBeforeSleep(i32 noundef %0) #0 {
  %2 = alloca i32, align 4
  store i32 %0, ptr %2, align 4, !tbaa !46
  %3 = load i32, ptr %2, align 4, !tbaa !46
  %4 = load ptr, ptr getelementptr inbounds nuw (%struct.redisServer, ptr @server, i32 0, i32 385), align 8, !tbaa !57
  %5 = getelementptr inbounds nuw %struct.clusterState, ptr %4, i32 0, i32 22
  %6 = load i32, ptr %5, align 8, !tbaa !116
  %7 = or i32 %6, %3
  store i32 %7, ptr %5, align 8, !tbaa !116
  ret void
}

; Function Attrs: nounwind uwtable
define dso_local i32 @clusterNodeRemoveSlave(ptr noundef %0, ptr noundef %1) #0 {
  %3 = alloca i32, align 4
  %4 = alloca ptr, align 8
  %5 = alloca ptr, align 8
  %6 = alloca i32, align 4
  %7 = alloca i32, align 4
  %8 = alloca i32, align 4
  store ptr %0, ptr %4, align 8, !tbaa !5
  store ptr %1, ptr %5, align 8, !tbaa !5
  call void @llvm.lifetime.start.p0(i64 4, ptr %6) #16
  store i32 0, ptr %6, align 4, !tbaa !46
  br label %9

9:                                                ; preds = %71, %2
  %10 = load i32, ptr %6, align 4, !tbaa !46
  %11 = load ptr, ptr %4, align 8, !tbaa !5
  %12 = getelementptr inbounds nuw %struct._clusterNode, ptr %11, i32 0, i32 9
  %13 = load i32, ptr %12, align 8, !tbaa !48
  %14 = icmp slt i32 %10, %13
  br i1 %14, label %15, label %74

15:                                               ; preds = %9
  %16 = load ptr, ptr %4, align 8, !tbaa !5
  %17 = getelementptr inbounds nuw %struct._clusterNode, ptr %16, i32 0, i32 10
  %18 = load ptr, ptr %17, align 8, !tbaa !49
  %19 = load i32, ptr %6, align 4, !tbaa !46
  %20 = sext i32 %19 to i64
  %21 = getelementptr inbounds ptr, ptr %18, i64 %20
  %22 = load ptr, ptr %21, align 8, !tbaa !5
  %23 = load ptr, ptr %5, align 8, !tbaa !5
  %24 = icmp eq ptr %22, %23
  br i1 %24, label %25, label %70

25:                                               ; preds = %15
  %26 = load i32, ptr %6, align 4, !tbaa !46
  %27 = add nsw i32 %26, 1
  %28 = load ptr, ptr %4, align 8, !tbaa !5
  %29 = getelementptr inbounds nuw %struct._clusterNode, ptr %28, i32 0, i32 9
  %30 = load i32, ptr %29, align 8, !tbaa !48
  %31 = icmp slt i32 %27, %30
  br i1 %31, label %32, label %55

32:                                               ; preds = %25
  call void @llvm.lifetime.start.p0(i64 4, ptr %7) #16
  %33 = load ptr, ptr %4, align 8, !tbaa !5
  %34 = getelementptr inbounds nuw %struct._clusterNode, ptr %33, i32 0, i32 9
  %35 = load i32, ptr %34, align 8, !tbaa !48
  %36 = load i32, ptr %6, align 4, !tbaa !46
  %37 = sub nsw i32 %35, %36
  %38 = sub nsw i32 %37, 1
  store i32 %38, ptr %7, align 4, !tbaa !46
  %39 = load ptr, ptr %4, align 8, !tbaa !5
  %40 = getelementptr inbounds nuw %struct._clusterNode, ptr %39, i32 0, i32 10
  %41 = load ptr, ptr %40, align 8, !tbaa !49
  %42 = load i32, ptr %6, align 4, !tbaa !46
  %43 = sext i32 %42 to i64
  %44 = getelementptr inbounds ptr, ptr %41, i64 %43
  %45 = load ptr, ptr %4, align 8, !tbaa !5
  %46 = getelementptr inbounds nuw %struct._clusterNode, ptr %45, i32 0, i32 10
  %47 = load ptr, ptr %46, align 8, !tbaa !49
  %48 = load i32, ptr %6, align 4, !tbaa !46
  %49 = add nsw i32 %48, 1
  %50 = sext i32 %49 to i64
  %51 = getelementptr inbounds ptr, ptr %47, i64 %50
  %52 = load i32, ptr %7, align 4, !tbaa !46
  %53 = sext i32 %52 to i64
  %54 = mul i64 8, %53
  call void @llvm.memmove.p0.p0.i64(ptr align 8 %44, ptr align 8 %51, i64 %54, i1 false)
  call void @llvm.lifetime.end.p0(i64 4, ptr %7) #16
  br label %55

55:                                               ; preds = %32, %25
  %56 = load ptr, ptr %4, align 8, !tbaa !5
  %57 = getelementptr inbounds nuw %struct._clusterNode, ptr %56, i32 0, i32 9
  %58 = load i32, ptr %57, align 8, !tbaa !48
  %59 = add nsw i32 %58, -1
  store i32 %59, ptr %57, align 8, !tbaa !48
  %60 = load ptr, ptr %4, align 8, !tbaa !5
  %61 = getelementptr inbounds nuw %struct._clusterNode, ptr %60, i32 0, i32 9
  %62 = load i32, ptr %61, align 8, !tbaa !48
  %63 = icmp eq i32 %62, 0
  br i1 %63, label %64, label %69

64:                                               ; preds = %55
  %65 = load ptr, ptr %4, align 8, !tbaa !5
  %66 = getelementptr inbounds nuw %struct._clusterNode, ptr %65, i32 0, i32 3
  %67 = load i32, ptr %66, align 8, !tbaa !86
  %68 = and i32 %67, -257
  store i32 %68, ptr %66, align 8, !tbaa !86
  br label %69

69:                                               ; preds = %64, %55
  store i32 0, ptr %3, align 4
  store i32 1, ptr %8, align 4
  br label %75

70:                                               ; preds = %15
  br label %71

71:                                               ; preds = %70
  %72 = load i32, ptr %6, align 4, !tbaa !46
  %73 = add nsw i32 %72, 1
  store i32 %73, ptr %6, align 4, !tbaa !46
  br label %9, !llvm.loop !211

74:                                               ; preds = %9
  store i32 -1, ptr %3, align 4
  store i32 1, ptr %8, align 4
  br label %75

75:                                               ; preds = %74, %69
  call void @llvm.lifetime.end.p0(i64 4, ptr %6) #16
  %76 = load i32, ptr %3, align 4
  ret i32 %76
}

; Function Attrs: nounwind uwtable
define dso_local i32 @clusterNodeIsMaster(ptr noundef %0) #0 {
  %2 = alloca ptr, align 8
  store ptr %0, ptr %2, align 8, !tbaa !5
  %3 = load ptr, ptr %2, align 8, !tbaa !5
  %4 = getelementptr inbounds nuw %struct._clusterNode, ptr %3, i32 0, i32 3
  %5 = load i32, ptr %4, align 8, !tbaa !86
  %6 = and i32 %5, 1
  ret i32 %6
}

; Function Attrs: nounwind uwtable
define dso_local void @clusterSetNodeAsMaster(ptr noundef %0) #0 {
  %2 = alloca ptr, align 8
  store ptr %0, ptr %2, align 8, !tbaa !5
  %3 = load ptr, ptr %2, align 8, !tbaa !5
  %4 = call i32 @clusterNodeIsMaster(ptr noundef %3)
  %5 = icmp ne i32 %4, 0
  br i1 %5, label %6, label %7

6:                                                ; preds = %1
  br label %38

7:                                                ; preds = %1
  %8 = load ptr, ptr %2, align 8, !tbaa !5
  %9 = getelementptr inbounds nuw %struct._clusterNode, ptr %8, i32 0, i32 11
  %10 = load ptr, ptr %9, align 8, !tbaa !55
  %11 = icmp ne ptr %10, null
  br i1 %11, label %12, label %27

12:                                               ; preds = %7
  %13 = load ptr, ptr %2, align 8, !tbaa !5
  %14 = getelementptr inbounds nuw %struct._clusterNode, ptr %13, i32 0, i32 11
  %15 = load ptr, ptr %14, align 8, !tbaa !55
  %16 = load ptr, ptr %2, align 8, !tbaa !5
  %17 = call i32 @clusterNodeRemoveSlave(ptr noundef %15, ptr noundef %16)
  %18 = load ptr, ptr %2, align 8, !tbaa !5
  %19 = load ptr, ptr @myself, align 8, !tbaa !5
  %20 = icmp ne ptr %18, %19
  br i1 %20, label %21, label %26

21:                                               ; preds = %12
  %22 = load ptr, ptr %2, align 8, !tbaa !5
  %23 = getelementptr inbounds nuw %struct._clusterNode, ptr %22, i32 0, i32 3
  %24 = load i32, ptr %23, align 8, !tbaa !86
  %25 = or i32 %24, 256
  store i32 %25, ptr %23, align 8, !tbaa !86
  br label %26

26:                                               ; preds = %21, %12
  br label %27

27:                                               ; preds = %26, %7
  %28 = load ptr, ptr %2, align 8, !tbaa !5
  %29 = getelementptr inbounds nuw %struct._clusterNode, ptr %28, i32 0, i32 3
  %30 = load i32, ptr %29, align 8, !tbaa !86
  %31 = and i32 %30, -3
  store i32 %31, ptr %29, align 8, !tbaa !86
  %32 = load ptr, ptr %2, align 8, !tbaa !5
  %33 = getelementptr inbounds nuw %struct._clusterNode, ptr %32, i32 0, i32 3
  %34 = load i32, ptr %33, align 8, !tbaa !86
  %35 = or i32 %34, 1
  store i32 %35, ptr %33, align 8, !tbaa !86
  %36 = load ptr, ptr %2, align 8, !tbaa !5
  %37 = getelementptr inbounds nuw %struct._clusterNode, ptr %36, i32 0, i32 11
  store ptr null, ptr %37, align 8, !tbaa !55
  call void @clusterDoBeforeSleep(i32 noundef 6)
  br label %38

38:                                               ; preds = %27, %6
  ret void
}