; Function Attrs: nofree norecurse nosync nounwind memory(readwrite, inaccessiblemem: none) uwtable
define dso_local void @clusterSetNodeAsMaster(ptr noundef captures(address) %0) local_unnamed_addr #24 {
  %2 = getelementptr inbounds nuw i8, ptr %0, i64 88
  %3 = load i32, ptr %2, align 8, !tbaa !82
  %4 = and i32 %3, 1
  %.not = icmp eq i32 %4, 0
  br i1 %.not, label %5, label %49

5:                                                ; preds = %1
  %6 = getelementptr inbounds nuw i8, ptr %0, i64 2184
  %7 = load ptr, ptr %6, align 8, !tbaa !59
  %.not10 = icmp eq ptr %7, null
  br i1 %.not10, label %41, label %8

8:                                                ; preds = %5
  %9 = getelementptr inbounds nuw i8, ptr %7, i64 2168
  %10 = load i32, ptr %9, align 8, !tbaa !39
  %11 = icmp sgt i32 %10, 0
  br i1 %11, label %.lr.ph.i, label %clusterNodeRemoveSlave.exit

.lr.ph.i:                                         ; preds = %8
  %12 = getelementptr inbounds nuw i8, ptr %7, i64 2176
  %13 = load ptr, ptr %12, align 8, !tbaa !45
  %wide.trip.count.i = zext nneg i32 %10 to i64
  br label %14

14:                                               ; preds = %38, %.lr.ph.i
  %indvars.iv.i = phi i64 [ 0, %.lr.ph.i ], [ %indvars.iv.next.i, %38 ]
  %15 = getelementptr inbounds nuw ptr, ptr %13, i64 %indvars.iv.i
  %16 = load ptr, ptr %15, align 8, !tbaa !46
  %17 = icmp eq ptr %16, %0
  br i1 %17, label %18, label %38

18:                                               ; preds = %14
  %19 = trunc nuw nsw i64 %indvars.iv.i to i32
  %20 = add nuw nsw i32 %19, 1
  %21 = icmp slt i32 %20, %10
  br i1 %21, label %22, label %30

22:                                               ; preds = %18
  %23 = getelementptr inbounds nuw ptr, ptr %13, i64 %indvars.iv.i
  %24 = xor i32 %19, -1
  %25 = add nsw i32 %10, %24
  %26 = zext nneg i32 %20 to i64
  %27 = getelementptr inbounds nuw ptr, ptr %13, i64 %26
  %28 = sext i32 %25 to i64
  %29 = shl nsw i64 %28, 3
  tail call void @llvm.memmove.p0.p0.i64(ptr nonnull align 8 %23, ptr nonnull align 8 %27, i64 %29, i1 false)
  %.pre.i = load i32, ptr %9, align 8, !tbaa !39
  br label %30

30:                                               ; preds = %22, %18
  %31 = phi i32 [ %.pre.i, %22 ], [ %10, %18 ]
  %32 = add nsw i32 %31, -1
  store i32 %32, ptr %9, align 8, !tbaa !39
  %33 = icmp eq i32 %32, 0
  br i1 %33, label %34, label %clusterNodeRemoveSlave.exit

34:                                               ; preds = %30
  %35 = getelementptr inbounds nuw i8, ptr %7, i64 88
  %36 = load i32, ptr %35, align 8, !tbaa !82
  %37 = and i32 %36, -257
  store i32 %37, ptr %35, align 8, !tbaa !82
  br label %clusterNodeRemoveSlave.exit

38:                                               ; preds = %14
  %indvars.iv.next.i = add nuw nsw i64 %indvars.iv.i, 1
  %exitcond.not.i = icmp eq i64 %indvars.iv.next.i, %wide.trip.count.i
  br i1 %exitcond.not.i, label %clusterNodeRemoveSlave.exit, label %14, !llvm.loop !145

clusterNodeRemoveSlave.exit:                      ; preds = %38, %8, %30, %34
  %39 = load ptr, ptr @myself, align 8, !tbaa !46
  %.not11 = icmp eq ptr %0, %39
  %.pre = load i32, ptr %2, align 8, !tbaa !82
  %40 = or i32 %.pre, 256
  %spec.select = select i1 %.not11, i32 %.pre, i32 %40
  br label %41

41:                                               ; preds = %clusterNodeRemoveSlave.exit, %5
  %42 = phi i32 [ %3, %5 ], [ %spec.select, %clusterNodeRemoveSlave.exit ]
  %43 = and i32 %42, -4
  %44 = or disjoint i32 %43, 1
  store i32 %44, ptr %2, align 8, !tbaa !82
  store ptr null, ptr %6, align 8, !tbaa !59
  %45 = load ptr, ptr getelementptr inbounds nuw (i8, ptr @server, i64 7920), align 8, !tbaa !56
  %46 = getelementptr inbounds nuw i8, ptr %45, i64 393384
  %47 = load i32, ptr %46, align 8, !tbaa !57
  %48 = or i32 %47, 6
  store i32 %48, ptr %46, align 8, !tbaa !57
  br label %49

49:                                               ; preds = %1, %41
  ret void
}